target datalayout = "e-m:e-p270:32:32-p271:32:32-p272:64:64-i64:64-i128:128-f80:128-n8:16:32:64-S128"
target triple = "x86_64-pc-linux-gnu"

%struct._zval_struct = type { %union._zend_value, %union.anon, %union.anon.2 }
%union._zend_value = type { i64 }
%union.anon = type { i32 }
%union.anon.2 = type { i32 }
%struct._zend_refcounted_h = type { i32, %union.anon.3 }
%union.anon.3 = type { i32 }
%struct._zend_string = type { %struct._zend_refcounted_h, i64, i64, [1 x i8] }

@.str.4 = private unnamed_addr constant [11 x i8] c"ICONV_IMPL\00", align 1
@.str.5 = private unnamed_addr constant [14 x i8] c"ICONV_VERSION\00", align 1
@.str.6 = private unnamed_addr constant [14 x i8] c"iconv support\00", align 1
@.str.7 = private unnamed_addr constant [8 x i8] c"enabled\00", align 1
@.str.8 = private unnamed_addr constant [21 x i8] c"iconv implementation\00", align 1
@.str.9 = private unnamed_addr constant [22 x i8] c"iconv library version\00", align 1

; Function Attrs: nounwind uwtable
define hidden void @zm_info_miconv(ptr noundef %0) #0 {
  %2 = alloca ptr, align 8
  %3 = alloca ptr, align 8
  %4 = alloca ptr, align 8
  store ptr %0, ptr %2, align 8, !tbaa !8
  call void @llvm.lifetime.start.p0(i64 8, ptr %3) #15
  call void @llvm.lifetime.start.p0(i64 8, ptr %4) #15
  %5 = call ptr @zend_get_constant_str(ptr noundef @.str.4, i64 noundef 10)
  store ptr %5, ptr %3, align 8, !tbaa !11
  %6 = call ptr @zend_get_constant_str(ptr noundef @.str.5, i64 noundef 13)
  store ptr %6, ptr %4, align 8, !tbaa !11
  call void @php_info_print_table_start()
  call void (i32, ...) @php_info_print_table_row(i32 noundef 2, ptr noundef @.str.6, ptr noundef @.str.7)
  %7 = load ptr, ptr %3, align 8, !tbaa !11
  %8 = getelementptr inbounds nuw %struct._zval_struct, ptr %7, i32 0, i32 0
  %9 = load ptr, ptr %8, align 8, !tbaa !13
  %10 = getelementptr inbounds nuw %struct._zend_string, ptr %9, i32 0, i32 3
  %11 = getelementptr inbounds [1 x i8], ptr %10, i64 0, i64 0
  call void (i32, ...) @php_info_print_table_row(i32 noundef 2, ptr noundef @.str.8, ptr noundef %11)
  %12 = load ptr, ptr %4, align 8, !tbaa !11
  %13 = getelementptr inbounds nuw %struct._zval_struct, ptr %12, i32 0, i32 0
  %14 = load ptr, ptr %13, align 8, !tbaa !13
  %15 = getelementptr inbounds nuw %struct._zend_string, ptr %14, i32 0, i32 3
  %16 = getelementptr inbounds [1 x i8], ptr %15, i64 0, i64 0
  call void (i32, ...) @php_info_print_table_row(i32 noundef 2, ptr noundef @.str.9, ptr noundef %16)
  call void @php_info_print_table_end()
  %17 = load ptr, ptr %2, align 8, !tbaa !8
  call void @display_ini_entries(ptr noundef %17)
  call void @llvm.lifetime.end.p0(i64 8, ptr %4) #15
  call void @llvm.lifetime.end.p0(i64 8, ptr %3) #15
  ret void
}