; Function Attrs: nounwind uwtable
define hidden void @zm_info_miconv(ptr noundef %0) #0 {
  %2 = tail call ptr @zend_get_constant_str(ptr noundef nonnull @.str.4, i64 noundef 10) #16
  %3 = tail call ptr @zend_get_constant_str(ptr noundef nonnull @.str.5, i64 noundef 13) #16
  tail call void @php_info_print_table_start() #16
  tail call void (i32, ...) @php_info_print_table_row(i32 noundef 2, ptr noundef nonnull @.str.6, ptr noundef nonnull @.str.7) #16
  %4 = load ptr, ptr %2, align 8, !tbaa !4
  %5 = getelementptr inbounds nuw i8, ptr %4, i64 24
  tail call void (i32, ...) @php_info_print_table_row(i32 noundef 2, ptr noundef nonnull @.str.8, ptr noundef nonnull %5) #16
  %6 = load ptr, ptr %3, align 8, !tbaa !4
  %7 = getelementptr inbounds nuw i8, ptr %6, i64 24
  tail call void (i32, ...) @php_info_print_table_row(i32 noundef 2, ptr noundef nonnull @.str.9, ptr noundef nonnull %7) #16
  tail call void @php_info_print_table_end() #16
  tail call void @display_ini_entries(ptr noundef %0) #16
  ret void
}